; Function Attrs: mustprogress nofree norecurse nosync nounwind willreturn memory(argmem: readwrite) uwtable
define void @_ZN6duckdb7roaring27ContainerMetadataCollection5ResetEv(ptr noundef nonnull align 8 captures(none) dereferenceable(96) initializes((72, 96)) %0) local_unnamed_addr #5 align 2 personality ptr @__gxx_personality_v0 {
  %2 = getelementptr inbounds nuw i8, ptr %0, i64 72
  tail call void @llvm.memset.p0.i64(ptr noundef nonnull align 8 dereferenceable(24) %2, i8 0, i64 24, i1 false)
  %3 = load ptr, ptr %0, align 8, !tbaa !200
  %4 = getelementptr inbounds nuw i8, ptr %0, i64 8
  %5 = load ptr, ptr %4, align 8, !tbaa !293
  %.not.i.i.i = icmp eq ptr %5, %3
  br i1 %.not.i.i.i, label %_ZN6duckdb6vectorIhLb1EE5clearEv.exit, label %6

6:                                                ; preds = %1
  store ptr %3, ptr %4, align 8, !tbaa !293
  br label %_ZN6duckdb6vectorIhLb1EE5clearEv.exit

_ZN6duckdb6vectorIhLb1EE5clearEv.exit:            ; preds = %1, %6
  %7 = getelementptr inbounds nuw i8, ptr %0, i64 24
  %8 = load ptr, ptr %7, align 8, !tbaa !200
  %9 = getelementptr inbounds nuw i8, ptr %0, i64 32
  %10 = load ptr, ptr %9, align 8, !tbaa !293
  %.not.i.i.i1 = icmp eq ptr %10, %8
  br i1 %.not.i.i.i1, label %_ZN6duckdb6vectorIhLb1EE5clearEv.exit2, label %11

11:                                               ; preds = %_ZN6duckdb6vectorIhLb1EE5clearEv.exit
  store ptr %8, ptr %9, align 8, !tbaa !293
  br label %_ZN6duckdb6vectorIhLb1EE5clearEv.exit2

_ZN6duckdb6vectorIhLb1EE5clearEv.exit2:           ; preds = %_ZN6duckdb6vectorIhLb1EE5clearEv.exit, %11
  %12 = getelementptr inbounds nuw i8, ptr %0, i64 48
  %13 = load ptr, ptr %12, align 8, !tbaa !200
  %14 = getelementptr inbounds nuw i8, ptr %0, i64 56
  %15 = load ptr, ptr %14, align 8, !tbaa !293
  %.not.i.i.i3 = icmp eq ptr %15, %13
  br i1 %.not.i.i.i3, label %_ZN6duckdb6vectorIhLb1EE5clearEv.exit4, label %16

16:                                               ; preds = %_ZN6duckdb6vectorIhLb1EE5clearEv.exit2
  store ptr %13, ptr %14, align 8, !tbaa !293
  br label %_ZN6duckdb6vectorIhLb1EE5clearEv.exit4

_ZN6duckdb6vectorIhLb1EE5clearEv.exit4:           ; preds = %_ZN6duckdb6vectorIhLb1EE5clearEv.exit2, %16
  ret void
}